target datalayout = "e-m:e-p270:32:32-p271:32:32-p272:64:64-i64:64-i128:128-f80:128-n8:16:32:64-S128"
target triple = "x86_64-pc-linux-gnu"

%"class.smt::theory" = type <{ ptr, i32, [4 x i8], ptr, ptr, %class.ptr_vector, %class.svector, i32, i8, [3 x i8] }>
%class.ptr_vector = type { %class.vector }
%class.vector = type { ptr }
%class.svector = type { %class.vector.0 }
%class.vector.0 = type { ptr }

; Function Attrs: mustprogress nounwind uwtable
define hidden noundef zeroext i1 @_ZN3smt6theory9lazy_pushEv(ptr noundef nonnull align 8 dereferenceable(53) %0) #4 align 2 {
  %2 = alloca ptr, align 8
  store ptr %0, ptr %2, align 8, !tbaa !28
  %3 = load ptr, ptr %2, align 8
  %4 = getelementptr inbounds nuw %"class.smt::theory", ptr %3, i32 0, i32 8
  %5 = load i8, ptr %4, align 4, !tbaa !42, !range !12, !noundef !13
  %6 = trunc i8 %5 to i1
  br i1 %6, label %7, label %11

7:                                                ; preds = %1
  %8 = getelementptr inbounds nuw %"class.smt::theory", ptr %3, i32 0, i32 7
  %9 = load i32, ptr %8, align 8, !tbaa !48
  %10 = add i32 %9, 1
  store i32 %10, ptr %8, align 8, !tbaa !48
  br label %11

11:                                               ; preds = %7, %1
  %12 = getelementptr inbounds nuw %"class.smt::theory", ptr %3, i32 0, i32 8
  %13 = load i8, ptr %12, align 4, !tbaa !42, !range !12, !noundef !13
  %14 = trunc i8 %13 to i1
  ret i1 %14
}