; Function Attrs: mustprogress nofree norecurse nosync nounwind willreturn memory(argmem: readwrite) uwtable
define hidden noundef zeroext i1 @_ZN3smt6theory9lazy_pushEv(ptr noundef nonnull align 8 captures(none) dereferenceable(53) %0) local_unnamed_addr #7 align 2 {
  %2 = getelementptr inbounds nuw i8, ptr %0, i64 52
  %3 = load i8, ptr %2, align 4, !tbaa !15, !range !22, !noundef !23
  %4 = trunc nuw i8 %3 to i1
  br i1 %4, label %5, label %9

5:                                                ; preds = %1
  %6 = getelementptr inbounds nuw i8, ptr %0, i64 48
  %7 = load i32, ptr %6, align 8, !tbaa !24
  %8 = add i32 %7, 1
  store i32 %8, ptr %6, align 8, !tbaa !24
  br label %9

9:                                                ; preds = %5, %1
  ret i1 %4
}